
binarios/proyecto.elf:     file format elf32-littlearm


Disassembly of section .text.code:

10000000 <reset>:
10000000:	4936      	ldr	r1, [pc, #216]	; (100000dc <main+0x58>)
10000002:	4837      	ldr	r0, [pc, #220]	; (100000e0 <main+0x5c>)
10000004:	6008      	str	r0, [r1, #0]
10000006:	4937      	ldr	r1, [pc, #220]	; (100000e4 <main+0x60>)
10000008:	f04f 00d5 	mov.w	r0, #213	; 0xd5
1000000c:	f8c1 0320 	str.w	r0, [r1, #800]	; 0x320
10000010:	f04f 00c4 	mov.w	r0, #196	; 0xc4
10000014:	f8c1 0220 	str.w	r0, [r1, #544]	; 0x220
10000018:	f8c1 0224 	str.w	r0, [r1, #548]	; 0x224
1000001c:	f8c1 0228 	str.w	r0, [r1, #552]	; 0x228
10000020:	f8c1 031c 	str.w	r0, [r1, #796]	; 0x31c
10000024:	f8c1 0188 	str.w	r0, [r1, #392]	; 0x188
10000028:	f8c1 0184 	str.w	r0, [r1, #388]	; 0x184
1000002c:	492e      	ldr	r1, [pc, #184]	; (100000e8 <main+0x64>)
1000002e:	6948      	ldr	r0, [r1, #20]
10000030:	f420 4073 	bic.w	r0, r0, #62208	; 0xf300
10000034:	6148      	str	r0, [r1, #20]
10000036:	492d      	ldr	r1, [pc, #180]	; (100000ec <main+0x68>)
10000038:	f04f 0064 	mov.w	r0, #100	; 0x64
1000003c:	6008      	str	r0, [r1, #0]
1000003e:	f04f 020a 	mov.w	r2, #10
10000042:	604a      	str	r2, [r1, #4]
10000044:	492a      	ldr	r1, [pc, #168]	; (100000f0 <main+0x6c>)
10000046:	f04f 0000 	mov.w	r0, #0
1000004a:	6708      	str	r0, [r1, #112]	; 0x70
1000004c:	f242 501c 	movw	r0, #9500	; 0x251c
10000050:	60c8      	str	r0, [r1, #12]
10000052:	61ca      	str	r2, [r1, #28]
10000054:	f04f 0008 	mov.w	r0, #8
10000058:	6148      	str	r0, [r1, #20]
1000005a:	f04f 00c0 	mov.w	r0, #192	; 0xc0
1000005e:	63c8      	str	r0, [r1, #60]	; 0x3c
10000060:	f04f 0002 	mov.w	r0, #2
10000064:	6048      	str	r0, [r1, #4]
10000066:	f04f 0001 	mov.w	r0, #1
1000006a:	6048      	str	r0, [r1, #4]
1000006c:	4921      	ldr	r1, [pc, #132]	; (100000f4 <main+0x70>)
1000006e:	f44f 4080 	mov.w	r0, #16384	; 0x4000
10000072:	6008      	str	r0, [r1, #0]
10000074:	4920      	ldr	r1, [pc, #128]	; (100000f8 <main+0x74>)
10000076:	f44f 4080 	mov.w	r0, #16384	; 0x4000
1000007a:	6008      	str	r0, [r1, #0]
1000007c:	4c1f      	ldr	r4, [pc, #124]	; (100000fc <main+0x78>)
1000007e:	4d20      	ldr	r5, [pc, #128]	; (10000100 <main+0x7c>)
10000080:	4e20      	ldr	r6, [pc, #128]	; (10000104 <main+0x80>)
10000082:	b662      	cpsie	i

10000084 <main>:
10000084:	6960      	ldr	r0, [r4, #20]
10000086:	f410 5f80 	tst.w	r0, #4096	; 0x1000
1000008a:	bf18      	it	ne
1000008c:	f000 f83c 	blne	10000108 <rebote>
10000090:	f410 5f80 	tst.w	r0, #4096	; 0x1000
10000094:	bf1c      	itt	ne
10000096:	210a      	movne	r1, #10
10000098:	6029      	strne	r1, [r5, #0]
1000009a:	f410 5f00 	tst.w	r0, #8192	; 0x2000
1000009e:	bf18      	it	ne
100000a0:	f000 f832 	blne	10000108 <rebote>
100000a4:	f410 5f00 	tst.w	r0, #8192	; 0x2000
100000a8:	bf1e      	ittt	ne
100000aa:	2100      	movne	r1, #0
100000ac:	390a      	subne	r1, #10
100000ae:	6029      	strne	r1, [r5, #0]
100000b0:	f410 7f00 	tst.w	r0, #512	; 0x200
100000b4:	bf18      	it	ne
100000b6:	f000 f827 	blne	10000108 <rebote>
100000ba:	f410 7f00 	tst.w	r0, #512	; 0x200
100000be:	bf1c      	itt	ne
100000c0:	2100      	movne	r1, #0
100000c2:	6031      	strne	r1, [r6, #0]
100000c4:	f410 7f80 	tst.w	r0, #256	; 0x100
100000c8:	bf18      	it	ne
100000ca:	f000 f81d 	blne	10000108 <rebote>
100000ce:	f410 7f80 	tst.w	r0, #256	; 0x100
100000d2:	bf1c      	itt	ne
100000d4:	2101      	movne	r1, #1
100000d6:	6031      	strne	r1, [r6, #0]
100000d8:	e7d4      	b.n	10000084 <main>
100000da:	0000      	.short	0x0000
100000dc:	e000ed08 	.word	0xe000ed08
100000e0:	10080000 	.word	0x10080000
100000e4:	40086000 	.word	0x40086000
100000e8:	400f6000 	.word	0x400f6000
100000ec:	10080100 	.word	0x10080100
100000f0:	400c3000 	.word	0x400c3000
100000f4:	e000e280 	.word	0xe000e280
100000f8:	e000e100 	.word	0xe000e100
100000fc:	400f6100 	.word	0x400f6100
10000100:	10080108 	.word	0x10080108
10000104:	1008010c 	.word	0x1008010c

10000108 <rebote>:
10000108:	b410      	push	{r4}
1000010a:	4c02      	ldr	r4, [pc, #8]	; (10000114 <rebote_lazo+0x8>)

1000010c <rebote_lazo>:
1000010c:	3c01      	subs	r4, #1
1000010e:	d1fd      	bne.n	1000010c <rebote_lazo>
10000110:	bc10      	pop	{r4}
10000112:	4770      	bx	lr
10000114:	00989680 	.word	0x00989680

10000118 <timer_isr>:
10000118:	b470      	push	{r4, r5, r6}
1000011a:	4919      	ldr	r1, [pc, #100]	; (10000180 <end+0x6>)
1000011c:	6808      	ldr	r0, [r1, #0]
1000011e:	6008      	str	r0, [r1, #0]
10000120:	4d18      	ldr	r5, [pc, #96]	; (10000184 <end+0xa>)
10000122:	682e      	ldr	r6, [r5, #0]
10000124:	2e00      	cmp	r6, #0
10000126:	bf08      	it	eq
10000128:	e018      	beq.n	1000015c <PWM>
1000012a:	f8df c05c 	ldr.w	ip, [pc, #92]	; 10000188 <end+0xe>
1000012e:	f8dc 4000 	ldr.w	r4, [ip]
10000132:	f04f 0200 	mov.w	r2, #0
10000136:	f8cc 2000 	str.w	r2, [ip]
1000013a:	f8df c050 	ldr.w	ip, [pc, #80]	; 1000018c <end+0x12>
1000013e:	f8dc 2000 	ldr.w	r2, [ip]
10000142:	f1a2 020a 	sub.w	r2, r2, #10
10000146:	f8dc 3004 	ldr.w	r3, [ip, #4]
1000014a:	4423      	add	r3, r4
1000014c:	2b0a      	cmp	r3, #10
1000014e:	bf38      	it	cc
10000150:	4613      	movcc	r3, r2
10000152:	4293      	cmp	r3, r2
10000154:	bf88      	it	hi
10000156:	230a      	movhi	r3, #10
10000158:	f8cc 3004 	str.w	r3, [ip, #4]

1000015c <PWM>:
1000015c:	f8df c02c 	ldr.w	ip, [pc, #44]	; 1000018c <end+0x12>
10000160:	f8dc 2004 	ldr.w	r2, [ip, #4]
10000164:	6bc8      	ldr	r0, [r1, #60]	; 0x3c
10000166:	f010 0f02 	tst.w	r0, #2
1000016a:	bf06      	itte	eq
1000016c:	f8dc 3000 	ldreq.w	r3, [ip]
10000170:	1a9b      	subeq	r3, r3, r2
10000172:	4613      	movne	r3, r2
10000174:	69c8      	ldr	r0, [r1, #28]
10000176:	4418      	add	r0, r3
10000178:	61c8      	str	r0, [r1, #28]

1000017a <end>:
1000017a:	bc70      	pop	{r4, r5, r6}
1000017c:	4770      	bx	lr
1000017e:	0000      	.short	0x0000
10000180:	400c3000 	.word	0x400c3000
10000184:	1008010c 	.word	0x1008010c
10000188:	10080108 	.word	0x10080108
1000018c:	10080100 	.word	0x10080100

10000190 <handler>:
10000190:	4801      	ldr	r0, [pc, #4]	; (10000198 <handler+0x8>)
10000192:	4780      	blx	r0
10000194:	e7fc      	b.n	10000190 <handler>
10000196:	0000      	.short	0x0000
10000198:	1a0001fd 	.word	0x1a0001fd

Disassembly of section .text.data:

10080000 <variables-0x100>:
10080000:	10088000 	.word	0x10088000
10080004:	10000001 	.word	0x10000001
10080008:	10000191 	.word	0x10000191
1008000c:	10000191 	.word	0x10000191
10080010:	10000191 	.word	0x10000191
10080014:	10000191 	.word	0x10000191
10080018:	10000191 	.word	0x10000191
	...
1008002c:	10000191 	.word	0x10000191
	...
10080038:	10000191 	.word	0x10000191
1008003c:	10000191 	.word	0x10000191
10080040:	10000191 	.word	0x10000191
10080044:	10000191 	.word	0x10000191
10080048:	10000191 	.word	0x10000191
1008004c:	00000000 	.word	0x00000000
10080050:	10000191 	.word	0x10000191
10080054:	10000191 	.word	0x10000191
10080058:	10000191 	.word	0x10000191
1008005c:	10000191 	.word	0x10000191
10080060:	10000191 	.word	0x10000191
10080064:	10000191 	.word	0x10000191
10080068:	10000191 	.word	0x10000191
1008006c:	10000191 	.word	0x10000191
10080070:	10000191 	.word	0x10000191
10080074:	10000191 	.word	0x10000191
10080078:	10000119 	.word	0x10000119
1008007c:	10000191 	.word	0x10000191
10080080:	10000191 	.word	0x10000191
10080084:	10000191 	.word	0x10000191
10080088:	10000191 	.word	0x10000191
1008008c:	10000191 	.word	0x10000191
10080090:	10000191 	.word	0x10000191
10080094:	10000191 	.word	0x10000191
10080098:	10000191 	.word	0x10000191
1008009c:	10000191 	.word	0x10000191
100800a0:	10000191 	.word	0x10000191
100800a4:	10000191 	.word	0x10000191
100800a8:	10000191 	.word	0x10000191
100800ac:	10000191 	.word	0x10000191
100800b0:	10000191 	.word	0x10000191
100800b4:	10000191 	.word	0x10000191
100800b8:	10000191 	.word	0x10000191
100800bc:	10000191 	.word	0x10000191
100800c0:	10000191 	.word	0x10000191
100800c4:	10000191 	.word	0x10000191
100800c8:	10000191 	.word	0x10000191
100800cc:	10000191 	.word	0x10000191
100800d0:	10000191 	.word	0x10000191
100800d4:	10000191 	.word	0x10000191
100800d8:	10000191 	.word	0x10000191
100800dc:	10000191 	.word	0x10000191
100800e0:	10000191 	.word	0x10000191
100800e4:	10000191 	.word	0x10000191
100800e8:	ffffffff 	.word	0xffffffff
100800ec:	ffffffff 	.word	0xffffffff
100800f0:	ffffffff 	.word	0xffffffff
100800f4:	ffffffff 	.word	0xffffffff
100800f8:	ffffffff 	.word	0xffffffff
100800fc:	ffffffff 	.word	0xffffffff

10080100 <variables>:
	...

10080108 <control_factor>:
10080108:	00000000 	.word	0x00000000

1008010c <control_estados>:
1008010c:	00000001 	.word	0x00000001
